target datalayout = "e-m:e-p270:32:32-p271:32:32-p272:64:64-i64:64-i128:128-f80:128-n8:16:32:64-S128"
target triple = "x86_64-pc-linux-gnu"

%"class.cvc5::internal::NodeTemplate.398" = type { ptr }
%"class.cvc5::internal::expr::NodeValue" = type { i64, i64, ptr, [0 x ptr] }

; Function Attrs: inlinehint mustprogress nounwind uwtable
define linkonce_odr hidden void @_ZNK4cvc58internal12NodeTemplateILb0EE21assertTNodeNotExpiredEv(ptr noundef nonnull align 8 dereferenceable(8) %0) #8 comdat align 2 {
  %2 = alloca ptr, align 8
  store ptr %0, ptr %2, align 8, !tbaa !348
  ret void
}

; Function Attrs: mustprogress nounwind uwtable
define linkonce_odr hidden void @_ZN4cvc58internal12NodeTemplateILb0EED2Ev(ptr noundef nonnull align 8 dereferenceable(8) %0) unnamed_addr #5 comdat align 2 {
  %2 = alloca ptr, align 8
  store ptr %0, ptr %2, align 8, !tbaa !348
  ret void
}

; Function Attrs: inlinehint mustprogress nounwind uwtable
define linkonce_odr hidden noundef i32 @_ZNK4cvc58internal12NodeTemplateILb0EE7getKindEv(ptr noundef nonnull align 8 dereferenceable(8) %0) #8 comdat align 2 {
  %2 = alloca ptr, align 8
  store ptr %0, ptr %2, align 8, !tbaa !348
  %3 = load ptr, ptr %2, align 8
  call void @_ZNK4cvc58internal12NodeTemplateILb0EE21assertTNodeNotExpiredEv(ptr noundef nonnull align 8 dereferenceable(8) %3)
  %4 = getelementptr inbounds nuw %"class.cvc5::internal::NodeTemplate.398", ptr %3, i32 0, i32 0
  %5 = load ptr, ptr %4, align 8, !tbaa !350
  %6 = getelementptr inbounds nuw %"class.cvc5::internal::expr::NodeValue", ptr %5, i32 0, i32 1
  %7 = load i64, ptr %6, align 8
  %8 = and i64 %7, 1023
  %9 = trunc i64 %8 to i32
  ret i32 %9
}

; Function Attrs: mustprogress nounwind uwtable
define linkonce_odr hidden void @_ZN4cvc58internal12NodeTemplateILb0EEC2ERKS2_(ptr noundef nonnull align 8 dereferenceable(8) %0, ptr noundef nonnull align 8 dereferenceable(8) %1) unnamed_addr #5 comdat align 2 {
  %3 = alloca ptr, align 8
  %4 = alloca ptr, align 8
  store ptr %0, ptr %3, align 8, !tbaa !348
  store ptr %1, ptr %4, align 8, !tbaa !348
  %5 = load ptr, ptr %3, align 8
  %6 = load ptr, ptr %4, align 8, !tbaa !348
  %7 = getelementptr inbounds nuw %"class.cvc5::internal::NodeTemplate.398", ptr %6, i32 0, i32 0
  %8 = load ptr, ptr %7, align 8, !tbaa !350
  %9 = getelementptr inbounds nuw %"class.cvc5::internal::NodeTemplate.398", ptr %5, i32 0, i32 0
  store ptr %8, ptr %9, align 8, !tbaa !350
  ret void
}

; Function Attrs: mustprogress uwtable
define hidden noundef zeroext i1 @_ZN4cvc58internal6theory11quantifiers8MatchGen23isHandledBoolConnectiveENS0_12NodeTemplateILb0EEE(ptr noundef %0) #4 align 2 personality ptr @__gxx_personality_v0 {
  %2 = alloca ptr, align 8
  %3 = alloca %"class.cvc5::internal::NodeTemplate.398", align 8
  %4 = alloca ptr, align 8
  %5 = alloca i32, align 4
  store ptr %0, ptr %2, align 8, !tbaa !348
  call void @_ZN4cvc58internal12NodeTemplateILb0EEC2ERKS2_(ptr noundef nonnull align 8 dereferenceable(8) %3, ptr noundef nonnull align 8 dereferenceable(8) %0)
  %6 = invoke noundef zeroext i1 @_ZN4cvc58internal6theory11quantifiers8TermUtil20isBoolConnectiveTermENS0_12NodeTemplateILb0EEE(ptr noundef %3)
          to label %7 unwind label %14

7:                                                ; preds = %1
  br i1 %6, label %8, label %12

8:                                                ; preds = %7
  %9 = invoke noundef i32 @_ZNK4cvc58internal12NodeTemplateILb0EE7getKindEv(ptr noundef nonnull align 8 dereferenceable(8) %0)
          to label %10 unwind label %14

10:                                               ; preds = %8
  %11 = icmp ne i32 %9, 249
  br label %12

12:                                               ; preds = %10, %7
  %13 = phi i1 [ false, %7 ], [ %11, %10 ]
  call void @_ZN4cvc58internal12NodeTemplateILb0EED2Ev(ptr noundef nonnull align 8 dereferenceable(8) %3) #3
  ret i1 %13

14:                                               ; preds = %8, %1
  %15 = landingpad { ptr, i32 }
          cleanup
  %16 = extractvalue { ptr, i32 } %15, 0
  store ptr %16, ptr %4, align 8
  %17 = extractvalue { ptr, i32 } %15, 1
  store i32 %17, ptr %5, align 4
  call void @_ZN4cvc58internal12NodeTemplateILb0EED2Ev(ptr noundef nonnull align 8 dereferenceable(8) %3) #3
  br label %18

18:                                               ; preds = %14
  %19 = load ptr, ptr %4, align 8
  %20 = load i32, ptr %5, align 4
  %21 = insertvalue { ptr, i32 } poison, ptr %19, 0
  %22 = insertvalue { ptr, i32 } %21, i32 %20, 1
  resume { ptr, i32 } %22
}