; Function Attrs: mustprogress uwtable
define hidden noundef zeroext i1 @_ZN4cvc58internal6theory11quantifiers8MatchGen23isHandledBoolConnectiveENS0_12NodeTemplateILb0EEE(ptr noundef readonly captures(none) %0) local_unnamed_addr #3 align 2 personality ptr @__gxx_personality_v0 {
  %2 = alloca %"class.cvc5::internal::NodeTemplate.398", align 8
  %3 = load ptr, ptr %0, align 8, !tbaa !92
  store ptr %3, ptr %2, align 8, !tbaa !92
  %4 = call noundef zeroext i1 @_ZN4cvc58internal6theory11quantifiers8TermUtil20isBoolConnectiveTermENS0_12NodeTemplateILb0EEE(ptr noundef nonnull %2)
  br i1 %4, label %5, label %11

5:                                                ; preds = %1
  %6 = load ptr, ptr %0, align 8, !tbaa !92
  %7 = getelementptr inbounds nuw i8, ptr %6, i64 8
  %8 = load i64, ptr %7, align 8
  %9 = and i64 %8, 1023
  %10 = icmp ne i64 %9, 249
  br label %11

11:                                               ; preds = %5, %1
  %12 = phi i1 [ false, %1 ], [ %10, %5 ]
  ret i1 %12
}